; Function Attrs: mustprogress nofree norecurse nosync nounwind willreturn memory(write, argmem: none, inaccessiblemem: none) uwtable
define void @_ZN11SearchFrame43on_charEncodingComboBox_currentIndexChangedEi(ptr nocapture noundef nonnull readnone align 8 dereferenceable(104) %0, i32 noundef %1) local_unnamed_addr #7 align 2 {
  %switch = icmp ult i32 %1, 3
  br i1 %switch, label %.sink.split, label %3

.sink.split:                                      ; preds = %2
  store i32 %1, ptr getelementptr inbounds (%struct.recent_settings_tag, ptr @recent, i64 0, i32 19), align 4
  br label %3

3:                                                ; preds = %2, %.sink.split
  ret void
}